; Function Attrs: nounwind uwtable
define void @Gia_GlaSendAbsracted(ptr noundef readonly captures(none) %0, i32 noundef %1) local_unnamed_addr #0 {
  %3 = tail call ptr @Gla_ManTranslate(ptr noundef %0)
  %4 = load ptr, ptr %0, align 8, !tbaa !144
  %5 = tail call ptr @Gia_ManDupAbsGates(ptr noundef %4, ptr noundef %3) #29
  %6 = icmp eq ptr %3, null
  br i1 %6, label %Vec_IntFreeP.exit, label %7

7:                                                ; preds = %2
  %8 = getelementptr inbounds nuw i8, ptr %3, i64 8
  %9 = load ptr, ptr %8, align 8, !tbaa !11
  %.not.i = icmp eq ptr %9, null
  br i1 %.not.i, label %10, label %.thread.i

.thread.i:                                        ; preds = %7
  tail call void @free(ptr noundef nonnull %9) #29
  br label %10

10:                                               ; preds = %.thread.i, %7
  tail call void @free(ptr noundef nonnull %3) #29
  br label %Vec_IntFreeP.exit

Vec_IntFreeP.exit:                                ; preds = %2, %10
  %11 = load ptr, ptr @stdout, align 8, !tbaa !105
  %12 = tail call i32 @Gia_ManToBridgeAbsNetlist(ptr noundef %11, ptr noundef %5, i32 noundef 107) #29
  tail call void @Gia_ManStop(ptr noundef %5) #29
  ret void
}